; Function Attrs: mustprogress nounwind uwtable
define dso_local void @_ZN6spdlog7details14log_msg_bufferC2EOS1_(ptr noundef nonnull align 8 dereferenceable(384) initializes((0, 128)) %0, ptr noundef nonnull align 8 dereferenceable(384) %1) unnamed_addr #1 align 2 personality ptr @__gxx_personality_v0 {
  tail call void @llvm.memcpy.p0.p0.i64(ptr noundef nonnull align 8 dereferenceable(96) %0, ptr noundef nonnull align 8 dereferenceable(96) %1, i64 96, i1 false), !tbaa.struct !52
  %3 = getelementptr inbounds nuw i8, ptr %0, i64 96
  %4 = getelementptr inbounds nuw i8, ptr %1, i64 96
  %5 = getelementptr inbounds nuw i8, ptr %0, i64 112
  %6 = getelementptr inbounds nuw i8, ptr %0, i64 120
  tail call void @llvm.memset.p0.i64(ptr noundef nonnull align 8 dereferenceable(283) %3, i8 0, i64 24, i1 false)
  store ptr @_ZN3fmt3v1119basic_memory_bufferIcLm250ENS0_6detail9allocatorIcEEE4growERNS2_6bufferIcEEm, ptr %6, align 8, !tbaa !18
  %7 = load ptr, ptr %4, align 8, !tbaa !20
  %8 = getelementptr inbounds nuw i8, ptr %1, i64 104
  %9 = load i64, ptr %8, align 8, !tbaa !25
  %10 = getelementptr inbounds nuw i8, ptr %1, i64 112
  %11 = load i64, ptr %10, align 8, !tbaa !21
  %.ptr.i.i = getelementptr inbounds nuw i8, ptr %1, i64 128
  %12 = icmp eq ptr %7, %.ptr.i.i
  br i1 %12, label %13, label %19

13:                                               ; preds = %2
  %14 = getelementptr inbounds nuw i8, ptr %0, i64 128
  store ptr %14, ptr %3, align 8, !tbaa !20
  store i64 %11, ptr %5, align 8, !tbaa !21
  %15 = getelementptr i8, ptr %4, i64 %9
  %.ptr16.i.i = getelementptr i8, ptr %15, i64 32
  %.not6.i.i.i = icmp eq i64 %9, 0
  br i1 %.not6.i.i.i, label %_ZN3fmt3v116detail4copyIcPcS3_TnNSt9enable_ifIXntsr23is_back_insert_iteratorIT1_EE5valueEiE4typeELi0EEES5_T0_S8_S5_.exit.i.i, label %.lr.ph.i.i.i

.lr.ph.i.i.i:                                     ; preds = %13, %.lr.ph.i.i.i
  %.08.i.i.i = phi ptr [ %18, %.lr.ph.i.i.i ], [ %14, %13 ]
  %.057.i.i.i = phi ptr [ %16, %.lr.ph.i.i.i ], [ %.ptr.i.i, %13 ]
  %16 = getelementptr inbounds nuw i8, ptr %.057.i.i.i, i64 1
  %17 = load i8, ptr %.057.i.i.i, align 1, !tbaa !17
  %18 = getelementptr inbounds nuw i8, ptr %.08.i.i.i, i64 1
  store i8 %17, ptr %.08.i.i.i, align 1, !tbaa !17
  %.not.i.i.i = icmp eq ptr %16, %.ptr16.i.i
  br i1 %.not.i.i.i, label %_ZN3fmt3v116detail4copyIcPcS3_TnNSt9enable_ifIXntsr23is_back_insert_iteratorIT1_EE5valueEiE4typeELi0EEES5_T0_S8_S5_.exit.i.i, label %.lr.ph.i.i.i, !llvm.loop !55

19:                                               ; preds = %2
  store ptr %7, ptr %3, align 8, !tbaa !20
  store i64 %11, ptr %5, align 8, !tbaa !21
  store ptr %.ptr.i.i, ptr %4, align 8, !tbaa !20
  tail call void @llvm.memset.p0.i64(ptr noundef nonnull align 8 dereferenceable(16) %8, i8 0, i64 16, i1 false)
  br label %_ZN3fmt3v116detail4copyIcPcS3_TnNSt9enable_ifIXntsr23is_back_insert_iteratorIT1_EE5valueEiE4typeELi0EEES5_T0_S8_S5_.exit.i.i

_ZN3fmt3v116detail4copyIcPcS3_TnNSt9enable_ifIXntsr23is_back_insert_iteratorIT1_EE5valueEiE4typeELi0EEES5_T0_S8_S5_.exit.i.i: ; preds = %.lr.ph.i.i.i, %19, %13
  %20 = load i64, ptr %5, align 8, !tbaa !21
  %21 = icmp ugt i64 %9, %20
  br i1 %21, label %22, label %_ZN3fmt3v1119basic_memory_bufferIcLm250ENS0_6detail9allocatorIcEEEC2EOS5_.exit

22:                                               ; preds = %_ZN3fmt3v116detail4copyIcPcS3_TnNSt9enable_ifIXntsr23is_back_insert_iteratorIT1_EE5valueEiE4typeELi0EEES5_T0_S8_S5_.exit.i.i
  %23 = load ptr, ptr %6, align 8, !tbaa !18
  invoke void %23(ptr noundef nonnull align 8 dereferenceable(283) %3, i64 noundef %9)
          to label %.noexc.i unwind label %24

.noexc.i:                                         ; preds = %22
  %.pre.i.i.i.i = load i64, ptr %5, align 8, !tbaa !21
  br label %_ZN3fmt3v1119basic_memory_bufferIcLm250ENS0_6detail9allocatorIcEEEC2EOS5_.exit

24:                                               ; preds = %22
  %25 = landingpad { ptr, i32 }
          catch ptr null
  %26 = extractvalue { ptr, i32 } %25, 0
  tail call void @__clang_call_terminate(ptr %26) #42
  unreachable

_ZN3fmt3v1119basic_memory_bufferIcLm250ENS0_6detail9allocatorIcEEEC2EOS5_.exit: ; preds = %_ZN3fmt3v116detail4copyIcPcS3_TnNSt9enable_ifIXntsr23is_back_insert_iteratorIT1_EE5valueEiE4typeELi0EEES5_T0_S8_S5_.exit.i.i, %.noexc.i
  %27 = phi i64 [ %20, %_ZN3fmt3v116detail4copyIcPcS3_TnNSt9enable_ifIXntsr23is_back_insert_iteratorIT1_EE5valueEiE4typeELi0EEES5_T0_S8_S5_.exit.i.i ], [ %.pre.i.i.i.i, %.noexc.i ]
  %28 = getelementptr inbounds nuw i8, ptr %0, i64 104
  %29 = tail call noundef i64 @llvm.umin.i64(i64 %9, i64 %27)
  store i64 %29, ptr %28, align 8, !tbaa !25
  %30 = load ptr, ptr %3, align 8, !tbaa !20
  %31 = getelementptr inbounds nuw i8, ptr %0, i64 8
  %32 = load i64, ptr %31, align 8, !tbaa !56
  store ptr %30, ptr %0, align 8, !tbaa !4
  %33 = getelementptr inbounds nuw i8, ptr %30, i64 %32
  %34 = getelementptr inbounds nuw i8, ptr %0, i64 80
  store ptr %33, ptr %34, align 8, !tbaa !4
  ret void
}